CCS PCM C Compiler, Version 4.104, 5967               22-Apr-25 18:20

               Filename: C:\Vu Thanh Dat\Study textbooks and lectures\Microprocessor\final program\code\finalsparking.lst

               ROM used: 992 words (12%)
                         Largest free fragment is 2048
               RAM used: 15 (4%) at main() level
                         35 (10%) worst case
               Stack:    3 locations

*
0000:  MOVLW  03
0001:  MOVWF  0A
0002:  GOTO   35B
0003:  NOP
.................... #include "C:\Vu Thanh Dat\Study textbooks and lectures\Microprocessor\final program\code\finalsparking.h" 
.................... #include <16F887.h> 
.................... //////// Standard Header file for the PIC16F887 device //////////////// 
.................... #device PIC16F887 
.................... #list 
....................  
.................... #device adc=10 
....................  
.................... #FUSES NOWDT                    //No Watch Dog Timer 
.................... #FUSES HS                       //High speed Osc (> 4mhz for PCM/PCH) (>10mhz for PCD) 
.................... #FUSES NOPUT                    //No Power Up Timer 
.................... #FUSES MCLR                     //Master Clear pin enabled 
.................... #FUSES NOPROTECT                //Code not protected from reading 
.................... #FUSES NOCPD                    //No EE protection 
.................... #FUSES NOBROWNOUT               //No brownout reset 
.................... #FUSES IESO                     //Internal External Switch Over mode enabled 
.................... #FUSES FCMEN                    //Fail-safe clock monitor enabled 
.................... #FUSES NOLVP                    //No low voltage prgming, B3(PIC16) or B5(PIC18) used for I/O 
.................... #FUSES NODEBUG                  //No Debug mode for ICD 
.................... #FUSES NOWRT                    //Program memory not write protected 
.................... #FUSES BORV40                   //Brownout reset at 4.0V 
.................... #FUSES RESERVED                 //Used to set the reserved FUSE bits 
....................  
.................... #use delay(clock=20000000) 
*
000D:  MOVLW  2E
000E:  MOVWF  04
000F:  BCF    03.7
0010:  MOVF   00,W
0011:  BTFSC  03.2
0012:  GOTO   020
0013:  MOVLW  06
0014:  MOVWF  78
0015:  CLRF   77
0016:  DECFSZ 77,F
0017:  GOTO   016
0018:  DECFSZ 78,F
0019:  GOTO   015
001A:  MOVLW  7B
001B:  MOVWF  77
001C:  DECFSZ 77,F
001D:  GOTO   01C
001E:  DECFSZ 00,F
001F:  GOTO   013
0020:  RETURN
.................... #use rs232(baud=9600,parity=N,xmit=PIN_C6,rcv=PIN_C7,bits=8) 
....................  
....................  
....................  
....................  
....................  
....................  
.................... //define lcd ports. 
....................  
.................... #BIT    TIMER1IF = 0x0c.0 // bit o of piro register. 
.................... #define rs   PIN_E0 
.................... #define rw   PIN_E1 
.................... #define e    PIN_E2 
.................... #define rs1   PIN_A5 
.................... #define rw1  PIN_A6 
.................... #define e1    PIN_A7 
....................  
....................  
.................... #define lcd_port   PORTD  // If using output_d() 
....................  
.................... #define trg1 PIN_C0 
.................... #define trg2 PIN_C1 
.................... #define trg3 PIN_C2 
.................... #define trg4 PIN_C3 
....................  
.................... #define echo1 PIN_C4 
.................... #define echo2 PIN_C5 
.................... #define echo3 PIN_C6 
.................... #define echo4 PIN_C7 
....................  
.................... int current_lcd = 1; 
.................... int current_rs; 
.................... int current_re; 
.................... unsigned int8 cnt = 0, d1=0, d2=0, d3=0, d4=0; 
.................... // command for the lcd1.  
.................... void lcd1_command (unsigned int8 cmd) 
.................... { 
....................   output_low(rw); 
0021:  BSF    03.5
0022:  BCF    09.1
0023:  BCF    03.5
0024:  BCF    09.1
....................   output_low(rs); //rs=0. 
0025:  BSF    03.5
0026:  BCF    09.0
0027:  BCF    03.5
0028:  BCF    09.0
....................   output_d(cmd); 
0029:  BSF    03.5
002A:  CLRF   08
002B:  BCF    03.5
002C:  MOVF   2A,W
002D:  MOVWF  08
....................   output_low(e); 
002E:  BSF    03.5
002F:  BCF    09.2
0030:  BCF    03.5
0031:  BCF    09.2
....................   output_high(e); 
0032:  BSF    03.5
0033:  BCF    09.2
0034:  BCF    03.5
0035:  BSF    09.2
....................   delay_ms(1); 
0036:  MOVLW  01
0037:  MOVWF  2E
0038:  CALL   00D
.................... } 
0039:  RETURN
.................... // function to control the lcd  data. 
.................... void lcd1_data(unsigned int8 data) 
.................... { 
....................   output_low(rw); 
*
029C:  BSF    03.5
029D:  BCF    09.1
029E:  BCF    03.5
029F:  BCF    09.1
....................   output_high(rs); //rs=1. 
02A0:  BSF    03.5
02A1:  BCF    09.0
02A2:  BCF    03.5
02A3:  BSF    09.0
....................   output_d(data); 
02A4:  BSF    03.5
02A5:  CLRF   08
02A6:  BCF    03.5
02A7:  MOVF   2D,W
02A8:  MOVWF  08
....................   output_low(e); 
02A9:  BSF    03.5
02AA:  BCF    09.2
02AB:  BCF    03.5
02AC:  BCF    09.2
....................   output_high(e); 
02AD:  BSF    03.5
02AE:  BCF    09.2
02AF:  BCF    03.5
02B0:  BSF    09.2
....................   delay_ms(1); 
02B1:  MOVLW  01
02B2:  MOVWF  2E
02B3:  CALL   00D
.................... } 
02B4:  RETURN
.................... // setup the lcd.  
.................... void lcd1_setup() 
.................... { 
....................     
....................    lcd1_command(0x38); 
*
003A:  MOVLW  38
003B:  MOVWF  2A
003C:  CALL   021
....................     
....................    lcd1_command(0x0c); 
003D:  MOVLW  0C
003E:  MOVWF  2A
003F:  CALL   021
....................    lcd1_command(0x06); 
0040:  MOVLW  06
0041:  MOVWF  2A
0042:  CALL   021
....................    lcd1_command(0x01); 
0043:  MOVLW  01
0044:  MOVWF  2A
0045:  CALL   021
....................     
.................... } 
0046:  BCF    0A.3
0047:  BCF    0A.4
0048:  GOTO   391 (RETURN)
.................... // command for the lcd2.  
.................... void lcd2_command (unsigned int8 cmd) 
.................... { 
....................   output_low(rw1); 
0049:  BSF    03.5
004A:  BCF    05.6
004B:  BCF    03.5
004C:  BCF    05.6
....................   output_low(rs1); //rs=0. 
004D:  BSF    03.5
004E:  BCF    05.5
004F:  BCF    03.5
0050:  BCF    05.5
....................   output_d(cmd); 
0051:  BSF    03.5
0052:  CLRF   08
0053:  BCF    03.5
0054:  MOVF   2A,W
0055:  MOVWF  08
....................   output_low(e1); 
0056:  BSF    03.5
0057:  BCF    05.7
0058:  BCF    03.5
0059:  BCF    05.7
....................   output_high(e1); 
005A:  BSF    03.5
005B:  BCF    05.7
005C:  BCF    03.5
005D:  BSF    05.7
....................    
.................... } 
005E:  RETURN
.................... // function to control the lcd  data. 
.................... void lcd2_data(unsigned int8 data) 
.................... { 
....................   output_low(rw1); 
*
02FD:  BSF    03.5
02FE:  BCF    05.6
02FF:  BCF    03.5
0300:  BCF    05.6
....................   output_high(rs1); //rs=1. 
0301:  BSF    03.5
0302:  BCF    05.5
0303:  BCF    03.5
0304:  BSF    05.5
....................   output_d(data); 
0305:  BSF    03.5
0306:  CLRF   08
0307:  BCF    03.5
0308:  MOVF   2D,W
0309:  MOVWF  08
....................   output_low(e1); 
030A:  BSF    03.5
030B:  BCF    05.7
030C:  BCF    03.5
030D:  BCF    05.7
....................   output_high(e1); 
030E:  BSF    03.5
030F:  BCF    05.7
0310:  BCF    03.5
0311:  BSF    05.7
....................    
.................... } 
0312:  RETURN
.................... // setup the lcd.  
.................... void lcd2_setup() 
.................... { 
....................    
....................    lcd2_command(0x38); 
*
005F:  MOVLW  38
0060:  MOVWF  2A
0061:  CALL   049
....................     
....................    lcd2_command(0x0c); 
0062:  MOVLW  0C
0063:  MOVWF  2A
0064:  CALL   049
....................    lcd2_command(0x06); 
0065:  MOVLW  06
0066:  MOVWF  2A
0067:  CALL   049
....................    lcd2_command(0x01); 
0068:  MOVLW  01
0069:  MOVWF  2A
006A:  CALL   049
....................     
.................... } 
006B:  BCF    0A.3
006C:  BCF    0A.4
006D:  GOTO   392 (RETURN)
.................... //sensor 
.................... void trigger_sensor(trigger_pin) { 
....................    output_high(trigger_pin); 
*
00A7:  MOVF   2C,W
00A8:  MOVWF  2D
00A9:  MOVLW  01
00AA:  MOVWF  2E
00AB:  CLRF   30
00AC:  CLRF   2F
00AD:  CALL   06E
00AE:  MOVF   2C,W
00AF:  MOVWF  2D
00B0:  CLRF   2E
00B1:  CLRF   30
00B2:  MOVLW  80
00B3:  MOVWF  2F
00B4:  CALL   06E
....................    delay_us(10); 
00B5:  MOVLW  10
00B6:  MOVWF  77
00B7:  DECFSZ 77,F
00B8:  GOTO   0B7
00B9:  NOP
....................    output_low(trigger_pin); 
00BA:  MOVF   2C,W
00BB:  MOVWF  2D
00BC:  CLRF   2E
00BD:  CLRF   30
00BE:  CLRF   2F
00BF:  CALL   06E
00C0:  MOVF   2C,W
00C1:  MOVWF  2D
00C2:  CLRF   2E
00C3:  CLRF   30
00C4:  MOVLW  80
00C5:  MOVWF  2F
00C6:  CALL   06E
.................... } 
.................... //distance 
.................... unsigned int16 measure_distance(trigger_pin, echo_pin) { 
....................     
....................    trigger_sensor(trigger_pin); 
*
00A5:  MOVF   2A,W
00A6:  MOVWF  2C
....................     
....................    // echo go high 
....................    while(!input(echo_pin)); 
*
00C7:  MOVF   2B,W
00C8:  MOVWF  2D
00C9:  MOVLW  01
00CA:  MOVWF  2E
00CB:  CLRF   30
00CC:  MOVLW  80
00CD:  MOVWF  2F
00CE:  CALL   06E
00CF:  MOVF   2B,W
00D0:  MOVWF  2C
00D1:  CLRF   2E
00D2:  CLRF   2D
00D3:  CALL   08E
00D4:  BTFSS  78.0
00D5:  GOTO   0C7
....................    TIMER1IF = 0; 
00D6:  BCF    0C.0
....................    set_timer1(0); 
00D7:  CLRF   0F
00D8:  CLRF   0E
....................    //pulse 
....................    while(input(echo_pin)); 
00D9:  MOVF   2B,W
00DA:  MOVWF  2D
00DB:  MOVLW  01
00DC:  MOVWF  2E
00DD:  CLRF   30
00DE:  MOVLW  80
00DF:  MOVWF  2F
00E0:  CALL   06E
00E1:  MOVF   2B,W
00E2:  MOVWF  2C
00E3:  CLRF   2E
00E4:  CLRF   2D
00E5:  CALL   08E
00E6:  BTFSC  78.0
00E7:  GOTO   0D9
....................    cnt = get_timer1(); 
00E8:  MOVF   0F,W
00E9:  MOVWF  7A
00EA:  MOVF   0E,W
00EB:  MOVWF  77
00EC:  MOVF   0F,W
00ED:  SUBWF  7A,W
00EE:  BTFSS  03.2
00EF:  GOTO   0E8
00F0:  MOVF   77,W
00F1:  MOVWF  23
....................  
....................    return (cnt *1.6 )/ 58; 
00F2:  CLRF   2D
00F3:  MOVF   23,W
00F4:  MOVWF  2C
*
0111:  MOVF   7A,W
0112:  MOVWF  2F
0113:  MOVF   79,W
0114:  MOVWF  2E
0115:  MOVF   78,W
0116:  MOVWF  2D
0117:  MOVF   77,W
0118:  MOVWF  2C
0119:  MOVLW  CD
011A:  MOVWF  33
011B:  MOVLW  CC
011C:  MOVWF  32
011D:  MOVLW  4C
011E:  MOVWF  31
011F:  MOVLW  7F
0120:  MOVWF  30
*
0195:  MOVF   77,W
0196:  MOVWF  2C
0197:  MOVF   78,W
0198:  MOVWF  2D
0199:  MOVF   79,W
019A:  MOVWF  2E
019B:  MOVF   7A,W
019C:  MOVWF  2F
019D:  MOVF   2F,W
019E:  MOVWF  33
019F:  MOVF   2E,W
01A0:  MOVWF  32
01A1:  MOVF   2D,W
01A2:  MOVWF  31
01A3:  MOVF   2C,W
01A4:  MOVWF  30
01A5:  CLRF   37
01A6:  CLRF   36
01A7:  MOVLW  68
01A8:  MOVWF  35
01A9:  MOVLW  84
01AA:  MOVWF  34
*
0274:  MOVF   7A,W
0275:  MOVWF  2F
0276:  MOVF   79,W
0277:  MOVWF  2E
0278:  MOVF   78,W
0279:  MOVWF  2D
027A:  MOVF   77,W
027B:  MOVWF  2C
*
029A:  MOVF   79,W
.................... } 
029B:  RETURN
.................... void main() 
.................... { 
*
035B:  CLRF   04
035C:  BCF    03.7
035D:  MOVLW  1F
035E:  ANDWF  03,F
035F:  BSF    03.5
0360:  BSF    03.6
0361:  BSF    07.3
0362:  MOVLW  08
0363:  BCF    03.6
0364:  MOVWF  19
0365:  MOVLW  02
0366:  MOVWF  1A
0367:  MOVLW  A6
0368:  MOVWF  18
0369:  MOVLW  90
036A:  BCF    03.5
036B:  MOVWF  18
036C:  MOVLW  01
036D:  MOVWF  20
036E:  CLRF   23
036F:  CLRF   24
0370:  CLRF   25
0371:  CLRF   26
0372:  CLRF   27
0373:  BSF    03.5
0374:  BSF    03.6
0375:  MOVF   09,W
0376:  ANDLW  C0
0377:  MOVWF  09
0378:  BCF    03.6
0379:  BCF    1F.4
037A:  BCF    1F.5
037B:  MOVLW  00
037C:  BSF    03.6
037D:  MOVWF  08
037E:  BCF    03.5
037F:  CLRF   07
0380:  CLRF   08
0381:  CLRF   09
....................    set_tris_d(0x00); 
*
0385:  MOVLW  00
0386:  BSF    03.5
0387:  MOVWF  08
....................    set_tris_e(0x00); 
0388:  BCF    09.0
0389:  BCF    09.1
038A:  BCF    09.2
038B:  BCF    09.3
....................       
....................    set_tris_c(0b11110000); 
038C:  MOVLW  F0
038D:  MOVWF  07
038E:  BCF    03.5
038F:  MOVWF  28
....................    lcd1_setup(); 
0390:  GOTO   03A
....................    lcd2_setup(); 
0391:  GOTO   05F
....................    
....................     
....................    setup_timer_1(T1_internal | T1_DIV_BY_2); 
0392:  MOVLW  15
0393:  MOVWF  10
....................    
....................     
....................     
....................    while(true) 
....................    {   
....................       d1 = measure_distance(trg1, echo1); 
0394:  MOVLW  38
0395:  MOVWF  2A
0396:  MOVLW  3C
0397:  MOVWF  2B
0398:  CALL   0A5
0399:  MOVF   78,W
039A:  MOVWF  24
....................       d2 = measure_distance(trg2, echo2); 
039B:  MOVLW  39
039C:  MOVWF  2A
039D:  MOVLW  3D
039E:  MOVWF  2B
039F:  CALL   0A5
03A0:  MOVF   78,W
03A1:  MOVWF  25
....................       d3 = measure_distance(trg3, echo3); 
03A2:  MOVLW  3A
03A3:  MOVWF  2A
03A4:  MOVLW  3E
03A5:  MOVWF  2B
03A6:  CALL   0A5
03A7:  MOVF   78,W
03A8:  MOVWF  26
....................       d4 = measure_distance(trg4, echo4); 
03A9:  MOVLW  3B
03AA:  MOVWF  2A
03AB:  MOVLW  3F
03AC:  MOVWF  2B
03AD:  CALL   0A5
03AE:  MOVF   78,W
03AF:  MOVWF  27
....................       unsigned int8  a =4;  
03B0:  MOVLW  04
03B1:  MOVWF  29
....................       if(d1 > 0x00)a--; 
03B2:  MOVF   24,F
03B3:  BTFSS  03.2
03B4:  DECF   29,F
....................       else a = a; 
....................       if(d2 > 0x00) a--; 
03B5:  MOVF   25,F
03B6:  BTFSS  03.2
03B7:  DECF   29,F
....................       else a = a; 
.................... //!      if(d3 > 0x00)a--; 
.................... //!      else a = a;S 
....................       if(d4 > 0x00) a--; 
03B8:  MOVF   27,F
03B9:  BTFSS  03.2
03BA:  DECF   29,F
....................       else a = a; 
....................       lcd1_command(0x80); 
03BB:  MOVLW  80
03BC:  MOVWF  2A
03BD:  CALL   021
....................       lcd1_data("ava slot"); 
03BE:  MOVLW  04
03BF:  BSF    03.6
03C0:  MOVWF  0D
03C1:  MOVLW  00
03C2:  MOVWF  0F
03C3:  BCF    03.6
03C4:  GOTO   2B5
....................  
....................       lcd1_data(a + '0'); 
03C5:  MOVLW  30
03C6:  ADDWF  29,W
03C7:  MOVWF  2A
03C8:  MOVWF  2D
03C9:  CALL   29C
....................       delay_ms(100); 
03CA:  MOVLW  64
03CB:  MOVWF  2E
03CC:  CALL   00D
....................       if (d1 > 50);  
03CD:  MOVF   24,W
03CE:  SUBLW  32
03CF:  BTFSS  03.0
03D0:  GOTO   3D1
....................       lcd2_command(0x80); 
03D1:  MOVLW  80
03D2:  MOVWF  2A
03D3:  CALL   049
....................       lcd2_data("too far"); 
03D4:  MOVLW  09
03D5:  BSF    03.6
03D6:  MOVWF  0D
03D7:  MOVLW  00
03D8:  MOVWF  0F
03D9:  BCF    03.6
03DA:  GOTO   313
....................       delay_ms(100); 
03DB:  MOVLW  64
03DC:  MOVWF  2E
03DD:  CALL   00D
....................    } 
03DE:  GOTO   394
.................... } 
03DF:  SLEEP

Configuration Fuses:
   Word  1: 2CF2   HS NOWDT NOPUT MCLR NOPROTECT NOCPD NOBROWNOUT IESO FCMEN NOLVP NODEBUG
   Word  2: 3FFF   NOWRT BORV40
